(dp1
S'sg_version_data'
p2
(dp3
S'code'
p4
S'v2.6.5'
p5
sS'description'
p6
S'* Check hidden tree items in Publish dialog'
p7
sS'tags'
p8
(lp9
sS'sg_payload'
p10
(dp11
S'name'
p12
S'tk-multi-publish2_v2.6.5.zip'
p13
sS'url'
p14
S'https://s3-proxy.shotgunstudio.com/d18c13bf0e59a9a82f18be518a1b6b508bcbd774/f37c7648b3db2ca7cff0731695ddd3eb8f1e18e5/tk-multi-publish2_v2.6.5.zip?response-content-disposition=filename%3D%22tk-multi-publish2_v2.6.5.zip%22&x-amz-meta-user-id=42&x-amz-meta-user-type=ApiUser&X-Amz-Algorithm=AWS4-HMAC-SHA256&X-Amz-Credential=ASIAYJG6Z4JIZ32MOYDE%2F20230313%2Fus-west-2%2Fs3%2Faws4_request&X-Amz-Date=20230313T151251Z&X-Amz-SignedHeaders=host&X-Amz-Expires=900&X-Amz-Security-Token=IQoJb3JpZ2luX2VjEAcaCXVzLWVhc3QtMSJHMEUCIH6SBN17e7Eb83DnWctAmfgsdnlUFJh%2Bfc8dhLJT5qcyAiEA2MrKPMaaAcu8yMEZdXhmDVMOc1%2FxUIKKZHCR3%2Fu8QXMqoQIIwP%2F%2F%2F%2F%2F%2F%2F%2F%2F%2FARAAGgw1Njk1NTA0MzA4MDEiDCh81BJ6mIRX0XKnRSr1AasrotpYpoBJSumXp1N8eydoQwJ%2Fl5gD0JXFX1qwsFYXVdSIN5dc5aOwmEKW98zFbzszsb053WbBEGrnC9gQx64UpYvMWF91RyLo48IXubscl88uGZ%2FBvyo%2BIpn9fXTKfYibJr52EgKiCkSUvHXIROJSE2IYKLbO74MrJezVHQyO98GBWPzrcCvAzk4OJCUDA2uncI8QcyGc4TUIBe2X%2BZWY5ieV0rZMdG1kSV2ItRT68kZLuft6B1T%2Fez4DdAJrd11WOAQg6B9L5LLFXqchPPFprl4Cqnazq9y7zONIgmPgMGUkPKutUmiu2DqD0I95%2Fu2K7ZDYMMHtvKAGOp0BeF4b8%2BhHUAqE%2FTOOQK%2BO%2FLECNT8KHtnVlZvux45y9W4sXcz2lVFAhC0VLHlk65eJRCQjBrIMJJmacOYfLT5GxXaomrExjkT5PTN2XJjBwar%2FqMe6Y3GuorxPbHJBO1iL6p0%2BRKqrw3BdGwV9WjiUQaqnra0m0bPTiTT2cLk0IalwMd4rb3Yywpx291K6taksg8esS0soE44189wVfg%3D%3D&X-Amz-Signature=ac0927b53e21193142fc0a011c8a42f5de83b454f4493214511c4d05beb8520d'
p15
sS'content_type'
p16
S'application/zip'
p17
sS'type'
p18
S'Attachment'
p19
sS'id'
p20
I29819
sS'link_type'
p21
S'upload'
p22
ssS'sg_status_list'
p23
S'prod'
p24
sS'sg_detailed_release_notes'
p25
(dp26
S'name'
p27
S'v2.6.5'
p28
sS'url'
p29
S'https://community.shotgridsoftware.com/t/a-new-version-of-tk-multi-publish2-has-been-released/14139/7'
p30
sS'content_type'
p31
NsS'type'
p32
S'Attachment'
p33
sS'id'
p34
I29820
sS'link_type'
p35
S'web'
p36
ssS'sg_documentation'
p37
(dp38
S'name'
p39
S'Documentation'
p40
sS'url'
p41
S'https://developer.shotgridsoftware.com/115000097513'
p42
sS'content_type'
p43
NsS'type'
p44
S'Attachment'
p45
sS'id'
p46
I29818
sS'link_type'
p47
S'web'
p48
ssS'type'
p49
S'CustomNonProjectEntity05'
p50
sS'id'
p51
I5335
ssS'sg_bundle_data'
p52
(dp53
S'sg_status_list'
p54
S'depl'
p55
sS'type'
p56
S'CustomNonProjectEntity02'
p57
sS'id'
p58
I231
sS'sg_system_name'
p59
S'tk-multi-publish2'
p60
sS'sg_deprecation_message'
p61
Nss.